; ModuleID = '32/1687.c'
source_filename = "32/1687.c"
target datalayout = "e-m:e-p270:32:32-p271:32:32-p272:64:64-i64:64-f80:128-n8:16:32:64-S128"
target triple = "x86_64-pc-linux-gnu"

@.str = private unnamed_addr constant [3 x i8] c"%d\00", align 1
@.str.1 = private unnamed_addr constant [4 x i8] c"%s\0A\00", align 1

; Function Attrs: noinline nounwind uwtable
define dso_local void @f(i8* %0, i8* %1, i8* %2) #0 {
  %4 = alloca i8*, align 8
  %5 = alloca i8*, align 8
  %6 = alloca i8*, align 8
  %7 = alloca i32, align 4
  %8 = alloca i32, align 4
  %9 = alloca i32, align 4
  %10 = alloca i32, align 4
  %11 = alloca i32, align 4
  store i8* %0, i8** %4, align 8
  store i8* %1, i8** %5, align 8
  store i8* %2, i8** %6, align 8
  %12 = load i8*, i8** %4, align 8
  %13 = call i64 @strlen(i8* %12) #3
  %14 = trunc i64 %13 to i32
  store i32 %14, i32* %7, align 4
  %15 = load i8*, i8** %5, align 8
  %16 = call i64 @strlen(i8* %15) #3
  %17 = trunc i64 %16 to i32
  store i32 %17, i32* %8, align 4
  store i32 0, i32* %9, align 4
  br label %18

18:                                               ; preds = %112, %3
  %19 = load i32, i32* %9, align 4
  %20 = load i32, i32* %7, align 4
  %21 = icmp slt i32 %19, %20
  br i1 %21, label %22, label %115

22:                                               ; preds = %18
  %23 = load i8*, i8** %5, align 8
  %24 = load i32, i32* %8, align 4
  %25 = sub nsw i32 %24, 1
  %26 = load i32, i32* %9, align 4
  %27 = sub nsw i32 %25, %26
  %28 = sext i32 %27 to i64
  %29 = getelementptr inbounds i8, i8* %23, i64 %28
  %30 = load i8, i8* %29, align 1
  %31 = sext i8 %30 to i32
  %32 = load i8*, i8** %4, align 8
  %33 = load i32, i32* %7, align 4
  %34 = sub nsw i32 %33, 1
  %35 = load i32, i32* %9, align 4
  %36 = sub nsw i32 %34, %35
  %37 = sext i32 %36 to i64
  %38 = getelementptr inbounds i8, i8* %32, i64 %37
  %39 = load i8, i8* %38, align 1
  %40 = sext i8 %39 to i32
  %41 = sub nsw i32 %31, %40
  %42 = icmp sge i32 %41, 0
  br i1 %42, label %43, label %72

43:                                               ; preds = %22
  %44 = load i8*, i8** %5, align 8
  %45 = load i32, i32* %8, align 4
  %46 = sub nsw i32 %45, 1
  %47 = load i32, i32* %9, align 4
  %48 = sub nsw i32 %46, %47
  %49 = sext i32 %48 to i64
  %50 = getelementptr inbounds i8, i8* %44, i64 %49
  %51 = load i8, i8* %50, align 1
  %52 = sext i8 %51 to i32
  %53 = load i8*, i8** %4, align 8
  %54 = load i32, i32* %7, align 4
  %55 = sub nsw i32 %54, 1
  %56 = load i32, i32* %9, align 4
  %57 = sub nsw i32 %55, %56
  %58 = sext i32 %57 to i64
  %59 = getelementptr inbounds i8, i8* %53, i64 %58
  %60 = load i8, i8* %59, align 1
  %61 = sext i8 %60 to i32
  %62 = sub nsw i32 %52, %61
  %63 = add nsw i32 %62, 48
  %64 = trunc i32 %63 to i8
  %65 = load i8*, i8** %6, align 8
  %66 = load i32, i32* %8, align 4
  %67 = sub nsw i32 %66, 1
  %68 = load i32, i32* %9, align 4
  %69 = sub nsw i32 %67, %68
  %70 = sext i32 %69 to i64
  %71 = getelementptr inbounds i8, i8* %65, i64 %70
  store i8 %64, i8* %71, align 1
  br label %111

72:                                               ; preds = %22
  %73 = load i8*, i8** %5, align 8
  %74 = load i32, i32* %8, align 4
  %75 = sub nsw i32 %74, 1
  %76 = load i32, i32* %9, align 4
  %77 = sub nsw i32 %75, %76
  %78 = sext i32 %77 to i64
  %79 = getelementptr inbounds i8, i8* %73, i64 %78
  %80 = load i8, i8* %79, align 1
  %81 = sext i8 %80 to i32
  %82 = load i8*, i8** %4, align 8
  %83 = load i32, i32* %7, align 4
  %84 = sub nsw i32 %83, 1
  %85 = load i32, i32* %9, align 4
  %86 = sub nsw i32 %84, %85
  %87 = sext i32 %86 to i64
  %88 = getelementptr inbounds i8, i8* %82, i64 %87
  %89 = load i8, i8* %88, align 1
  %90 = sext i8 %89 to i32
  %91 = sub nsw i32 %81, %90
  %92 = add nsw i32 %91, 48
  %93 = add nsw i32 %92, 10
  %94 = trunc i32 %93 to i8
  %95 = load i8*, i8** %6, align 8
  %96 = load i32, i32* %8, align 4
  %97 = sub nsw i32 %96, 1
  %98 = load i32, i32* %9, align 4
  %99 = sub nsw i32 %97, %98
  %100 = sext i32 %99 to i64
  %101 = getelementptr inbounds i8, i8* %95, i64 %100
  store i8 %94, i8* %101, align 1
  %102 = load i8*, i8** %5, align 8
  %103 = load i32, i32* %8, align 4
  %104 = sub nsw i32 %103, 2
  %105 = load i32, i32* %9, align 4
  %106 = sub nsw i32 %104, %105
  %107 = sext i32 %106 to i64
  %108 = getelementptr inbounds i8, i8* %102, i64 %107
  %109 = load i8, i8* %108, align 1
  %110 = add i8 %109, -1
  store i8 %110, i8* %108, align 1
  br label %111

111:                                              ; preds = %72, %43
  br label %112

112:                                              ; preds = %111
  %113 = load i32, i32* %9, align 4
  %114 = add nsw i32 %113, 1
  store i32 %114, i32* %9, align 4
  br label %18

115:                                              ; preds = %18
  %116 = load i8*, i8** %6, align 8
  %117 = load i32, i32* %8, align 4
  %118 = sext i32 %117 to i64
  %119 = getelementptr inbounds i8, i8* %116, i64 %118
  store i8 0, i8* %119, align 1
  store i32 0, i32* %10, align 4
  br label %120

120:                                              ; preds = %136, %115
  %121 = load i32, i32* %10, align 4
  %122 = load i32, i32* %8, align 4
  %123 = load i32, i32* %7, align 4
  %124 = sub nsw i32 %122, %123
  %125 = icmp slt i32 %121, %124
  br i1 %125, label %126, label %139

126:                                              ; preds = %120
  %127 = load i8*, i8** %5, align 8
  %128 = load i32, i32* %10, align 4
  %129 = sext i32 %128 to i64
  %130 = getelementptr inbounds i8, i8* %127, i64 %129
  %131 = load i8, i8* %130, align 1
  %132 = load i8*, i8** %6, align 8
  %133 = load i32, i32* %10, align 4
  %134 = sext i32 %133 to i64
  %135 = getelementptr inbounds i8, i8* %132, i64 %134
  store i8 %131, i8* %135, align 1
  br label %136

136:                                              ; preds = %126
  %137 = load i32, i32* %10, align 4
  %138 = add nsw i32 %137, 1
  store i32 %138, i32* %10, align 4
  br label %120

139:                                              ; preds = %120
  %140 = load i8*, i8** %6, align 8
  %141 = getelementptr inbounds i8, i8* %140, i64 0
  %142 = load i8, i8* %141, align 1
  %143 = sext i8 %142 to i32
  %144 = icmp eq i32 %143, 48
  br i1 %144, label %145, label %172

145:                                              ; preds = %139
  %146 = load i8*, i8** %6, align 8
  %147 = getelementptr inbounds i8, i8* %146, i64 1
  %148 = load i8, i8* %147, align 1
  %149 = sext i8 %148 to i32
  %150 = icmp ne i32 %149, 0
  br i1 %150, label %151, label %172

151:                                              ; preds = %145
  store i32 0, i32* %11, align 4
  br label %152

152:                                              ; preds = %168, %151
  %153 = load i32, i32* %11, align 4
  %154 = load i32, i32* %8, align 4
  %155 = add nsw i32 %154, 1
  %156 = icmp slt i32 %153, %155
  br i1 %156, label %157, label %171

157:                                              ; preds = %152
  %158 = load i8*, i8** %6, align 8
  %159 = load i32, i32* %11, align 4
  %160 = add nsw i32 %159, 1
  %161 = sext i32 %160 to i64
  %162 = getelementptr inbounds i8, i8* %158, i64 %161
  %163 = load i8, i8* %162, align 1
  %164 = load i8*, i8** %6, align 8
  %165 = load i32, i32* %11, align 4
  %166 = sext i32 %165 to i64
  %167 = getelementptr inbounds i8, i8* %164, i64 %166
  store i8 %163, i8* %167, align 1
  br label %168

168:                                              ; preds = %157
  %169 = load i32, i32* %11, align 4
  %170 = add nsw i32 %169, 1
  store i32 %170, i32* %11, align 4
  br label %152

171:                                              ; preds = %152
  br label %172

172:                                              ; preds = %171, %145, %139
  ret void
}

; Function Attrs: nounwind readonly
declare dso_local i64 @strlen(i8*) #1

; Function Attrs: noinline nounwind uwtable
define dso_local i32 @main() #0 {
  %1 = alloca i32, align 4
  %2 = alloca i32, align 4
  %3 = alloca i32, align 4
  %4 = alloca [101 x i8], align 16
  %5 = alloca [101 x i8], align 16
  %6 = alloca [101 x i8], align 16
  store i32 0, i32* %1, align 4
  %7 = call i32 (i8*, ...) @__isoc99_scanf(i8* getelementptr inbounds ([3 x i8], [3 x i8]* @.str, i64 0, i64 0), i32* %2)
  %8 = call i32 @getchar()
  store i32 0, i32* %3, align 4
  br label %9

9:                                                ; preds = %24, %0
  %10 = load i32, i32* %3, align 4
  %11 = load i32, i32* %2, align 4
  %12 = icmp slt i32 %10, %11
  br i1 %12, label %13, label %27

13:                                               ; preds = %9
  %14 = getelementptr inbounds [101 x i8], [101 x i8]* %4, i64 0, i64 0
  %15 = call i32 (i8*, ...) bitcast (i32 (...)* @gets to i32 (i8*, ...)*)(i8* %14)
  %16 = getelementptr inbounds [101 x i8], [101 x i8]* %5, i64 0, i64 0
  %17 = call i32 (i8*, ...) bitcast (i32 (...)* @gets to i32 (i8*, ...)*)(i8* %16)
  %18 = getelementptr inbounds [101 x i8], [101 x i8]* %5, i64 0, i64 0
  %19 = getelementptr inbounds [101 x i8], [101 x i8]* %4, i64 0, i64 0
  %20 = getelementptr inbounds [101 x i8], [101 x i8]* %6, i64 0, i64 0
  call void @f(i8* %18, i8* %19, i8* %20)
  %21 = getelementptr inbounds [101 x i8], [101 x i8]* %6, i64 0, i64 0
  %22 = call i32 (i8*, ...) @printf(i8* getelementptr inbounds ([4 x i8], [4 x i8]* @.str.1, i64 0, i64 0), i8* %21)
  %23 = call i32 @getchar()
  br label %24

24:                                               ; preds = %13
  %25 = load i32, i32* %3, align 4
  %26 = add nsw i32 %25, 1
  store i32 %26, i32* %3, align 4
  br label %9

27:                                               ; preds = %9
  %28 = load i32, i32* %1, align 4
  ret i32 %28
}

declare dso_local i32 @__isoc99_scanf(i8*, ...) #2

declare dso_local i32 @getchar() #2

declare dso_local i32 @gets(...) #2

declare dso_local i32 @printf(i8*, ...) #2


!llvm.module.flags = !{!0}
!llvm.ident = !{!1}

!0 = !{i32 1, !"wchar_size", i32 4}
!1 = !{!"clang version 10.0.0-4ubuntu1 "}
